target datalayout = "e-m:e-p270:32:32-p271:32:32-p272:64:64-i64:64-i128:128-f80:128-n8:16:32:64-S128"
target triple = "x86_64-pc-linux-gnu"

%struct.mbedtls_ctr_drbg_context = type { [16 x i8], i32, i32, i64, i32, %struct.mbedtls_aes_context, ptr, ptr }
%struct.mbedtls_aes_context = type { i32, i64, [68 x i32] }

; Function Attrs: nounwind uwtable
define hidden i32 @mbedtls_ctr_drbg_set_nonce_len(ptr noundef %0, i64 noundef %1) #0 {
  %3 = alloca i32, align 4
  %4 = alloca ptr, align 8
  %5 = alloca i64, align 8
  store ptr %0, ptr %4, align 8, !tbaa !3
  store i64 %1, ptr %5, align 8, !tbaa !16
  %6 = load ptr, ptr %4, align 8, !tbaa !3
  %7 = getelementptr inbounds nuw %struct.mbedtls_ctr_drbg_context, ptr %6, i32 0, i32 6
  %8 = load ptr, ptr %7, align 8, !tbaa !18
  %9 = icmp ne ptr %8, null
  br i1 %9, label %10, label %11

10:                                               ; preds = %2
  store i32 -52, ptr %3, align 4
  br label %24

11:                                               ; preds = %2
  %12 = load i64, ptr %5, align 8, !tbaa !16
  %13 = icmp ugt i64 %12, 384
  br i1 %13, label %14, label %15

14:                                               ; preds = %11
  store i32 -56, ptr %3, align 4
  br label %24

15:                                               ; preds = %11
  %16 = load i64, ptr %5, align 8, !tbaa !16
  %17 = icmp ugt i64 %16, 2147483647
  br i1 %17, label %18, label %19

18:                                               ; preds = %15
  store i32 -56, ptr %3, align 4
  br label %24

19:                                               ; preds = %15
  %20 = load i64, ptr %5, align 8, !tbaa !16
  %21 = trunc i64 %20 to i32
  %22 = load ptr, ptr %4, align 8, !tbaa !3
  %23 = getelementptr inbounds nuw %struct.mbedtls_ctr_drbg_context, ptr %22, i32 0, i32 1
  store i32 %21, ptr %23, align 8, !tbaa !8
  store i32 0, ptr %3, align 4
  br label %24

24:                                               ; preds = %19, %18, %14, %10
  %25 = load i32, ptr %3, align 4
  ret i32 %25
}