; Function Attrs: mustprogress nofree norecurse nosync nounwind willreturn memory(argmem: readwrite) uwtable
define hidden range(i32 -56, 1) i32 @mbedtls_ctr_drbg_set_nonce_len(ptr noundef captures(none) %0, i64 noundef %1) local_unnamed_addr #4 {
  %3 = getelementptr inbounds nuw i8, ptr %0, i64 328
  %4 = load ptr, ptr %3, align 8, !tbaa !14
  %.not = icmp eq ptr %4, null
  br i1 %.not, label %5, label %10

5:                                                ; preds = %2
  %6 = icmp ugt i64 %1, 384
  br i1 %6, label %10, label %7

7:                                                ; preds = %5
  %8 = trunc nuw nsw i64 %1 to i32
  %9 = getelementptr inbounds nuw i8, ptr %0, i64 16
  store i32 %8, ptr %9, align 8, !tbaa !3
  br label %10

10:                                               ; preds = %5, %2, %7
  %.0 = phi i32 [ 0, %7 ], [ -52, %2 ], [ -56, %5 ]
  ret i32 %.0
}